; Function Attrs: mustprogress nounwind uwtable
define dso_local void @_ZNK9struct_pb8compiler31RepeatedPrimitiveFieldGenerator10packed_tagB5cxx11Ev(ptr noalias sret(%"class.std::__cxx11::basic_string") align 8 %agg.result, ptr nocapture noundef nonnull readonly align 8 dereferenceable(64) %this) local_unnamed_addr #4 align 2 {
entry:
  %d_ = getelementptr inbounds i8, ptr %this, i64 56
  %0 = load ptr, ptr %d_, align 8
  %number_.i = getelementptr inbounds i8, ptr %0, i64 68
  %1 = load i32, ptr %number_.i, align 4
  %shl = shl i32 %1, 3
  %or = or disjoint i32 %shl, 2
  tail call void @_ZNSt7__cxx119to_stringEj(ptr sret(%"class.std::__cxx11::basic_string") align 8 %agg.result, i32 noundef %or) #18
  ret void
}